target datalayout = "e-m:e-p270:32:32-p271:32:32-p272:64:64-i64:64-i128:128-f80:128-n8:16:32:64-S128"
target triple = "x86_64-pc-linux-gnu"

%struct.If_Man_t_ = type { ptr, ptr, ptr, ptr, ptr, ptr, ptr, ptr, [5 x i32], i32, float, float, float, float, i32, float, i32, i32, [4 x ptr], ptr, i32, i32, i32, ptr, [3 x [32 x i32]], i32, i32, i32, ptr, ptr, ptr, ptr, ptr, ptr, ptr, i32, i32, i32, [16 x i32], i32, i32, i32, i32, ptr, ptr, ptr, ptr, ptr, i32, i32, [32 x i32], [32 x i32], i32, i32, i32, i32, ptr, [16 x ptr], [16 x ptr], [16 x ptr], [16 x ptr], [16 x ptr], [16 x ptr], [16 x ptr], ptr, ptr, ptr, ptr, [32 x i8], i32, i32, i32, [6 x i64], [2 x i32], [2 x i32], ptr, [15 x i32], ptr, ptr, ptr, [16 x i32], ptr, ptr, ptr, ptr, [2 x i32], [2 x i32], [2 x ptr], ptr }
%struct.If_Cut_t_ = type <{ float, float, float, float, i32, i32, i32, i48, [0 x i32] }>
%struct.If_Obj_t_ = type { i32, i32, i32, i32, i32, i32, ptr, ptr, ptr, float, float, float, %union.anon, ptr, %struct.If_Cut_t_ }
%union.anon = type { ptr }
%struct.Vec_Wec_t_ = type { i32, i32, ptr }
%struct.Vec_Int_t_ = type { i32, i32, ptr }
%struct.Vec_Ptr_t_ = type { i32, i32, ptr }

; Function Attrs: nounwind uwtable
define internal i32 @If_CutPinDelayGet(i64 noundef %0, i32 noundef %1) #0 {
  %3 = alloca i64, align 8
  %4 = alloca i32, align 4
  store i64 %0, ptr %3, align 8
  store i32 %1, ptr %4, align 4
  %5 = load i64, ptr %3, align 8
  %6 = load i32, ptr %4, align 4
  %7 = shl i32 %6, 2
  %8 = zext i32 %7 to i64
  %9 = lshr i64 %5, %8
  %10 = and i64 %9, 15
  %11 = trunc i64 %10 to i32
  ret i32 %11
}

; Function Attrs: nounwind uwtable
define internal ptr @Vec_PtrEntry(ptr noundef %0, i32 noundef %1) #0 {
  %3 = alloca ptr, align 8
  %4 = alloca i32, align 4
  store ptr %0, ptr %3, align 8
  store i32 %1, ptr %4, align 4
  %5 = load ptr, ptr %3, align 8
  %6 = getelementptr inbounds %struct.Vec_Ptr_t_, ptr %5, i32 0, i32 2
  %7 = load ptr, ptr %6, align 8
  %8 = load i32, ptr %4, align 4
  %9 = sext i32 %8 to i64
  %10 = getelementptr inbounds ptr, ptr %7, i64 %9
  %11 = load ptr, ptr %10, align 8
  ret ptr %11
}

; Function Attrs: nounwind uwtable
define internal void @If_CutPinDelayTranslate(i64 noundef %0, i32 noundef %1, ptr noundef %2) #0 {
  %4 = alloca i64, align 8
  %5 = alloca i32, align 4
  %6 = alloca ptr, align 8
  %7 = alloca i32, align 4
  %8 = alloca i32, align 4
  store i64 %0, ptr %4, align 8
  store i32 %1, ptr %5, align 4
  store ptr %2, ptr %6, align 8
  store i32 0, ptr %7, align 4
  br label %9

9:                                                ; preds = %24, %3
  %10 = load i32, ptr %7, align 4
  %11 = load i32, ptr %5, align 4
  %12 = icmp slt i32 %10, %11
  br i1 %12, label %13, label %27

13:                                               ; preds = %9
  %14 = load i64, ptr %4, align 8
  %15 = load i32, ptr %7, align 4
  %16 = call i32 @If_CutPinDelayGet(i64 noundef %14, i32 noundef %15)
  store i32 %16, ptr %8, align 4
  %17 = load i32, ptr %8, align 4
  %18 = sub nsw i32 %17, 1
  %19 = trunc i32 %18 to i8
  %20 = load ptr, ptr %6, align 8
  %21 = load i32, ptr %7, align 4
  %22 = sext i32 %21 to i64
  %23 = getelementptr inbounds i8, ptr %20, i64 %22
  store i8 %19, ptr %23, align 1
  br label %24

24:                                               ; preds = %13
  %25 = load i32, ptr %7, align 4
  %26 = add nsw i32 %25, 1
  store i32 %26, ptr %7, align 4
  br label %9, !llvm.loop !15

27:                                               ; preds = %9
  ret void
}

; Function Attrs: nounwind uwtable
define internal i64 @If_CutPinDelayInit(i32 noundef %0) #0 {
  %2 = alloca i32, align 4
  store i32 %0, ptr %2, align 4
  %3 = load i32, ptr %2, align 4
  %4 = shl i32 %3, 2
  %5 = zext i32 %4 to i64
  %6 = shl i64 1, %5
  ret i64 %6
}

; Function Attrs: nounwind uwtable
define internal ptr @If_ManObj(ptr noundef %0, i32 noundef %1) #0 {
  %3 = alloca ptr, align 8
  %4 = alloca i32, align 4
  store ptr %0, ptr %3, align 8
  store i32 %1, ptr %4, align 4
  %5 = load ptr, ptr %3, align 8
  %6 = getelementptr inbounds %struct.If_Man_t_, ptr %5, i32 0, i32 5
  %7 = load ptr, ptr %6, align 8
  %8 = load i32, ptr %4, align 4
  %9 = call ptr @Vec_PtrEntry(ptr noundef %7, i32 noundef %8)
  ret ptr %9
}

; Function Attrs: nounwind uwtable
define i32 @If_CutSopBalancePinDelaysIntInt(ptr noundef %0, ptr noundef %1, i32 noundef %2, ptr noundef %3) #0 {
  %5 = alloca ptr, align 8
  %6 = alloca ptr, align 8
  %7 = alloca i32, align 4
  %8 = alloca ptr, align 8
  %9 = alloca i32, align 4
  %10 = alloca i32, align 4
  %11 = alloca i64, align 8
  %12 = alloca [15 x i64], align 16
  store ptr %0, ptr %5, align 8
  store ptr %1, ptr %6, align 8
  store i32 %2, ptr %7, align 4
  store ptr %3, ptr %8, align 8
  store i32 0, ptr %9, align 4
  br label %13

13:                                               ; preds = %23, %4
  %14 = load i32, ptr %9, align 4
  %15 = load i32, ptr %7, align 4
  %16 = icmp slt i32 %14, %15
  br i1 %16, label %17, label %26

17:                                               ; preds = %13
  %18 = load i32, ptr %9, align 4
  %19 = call i64 @If_CutPinDelayInit(i32 noundef %18)
  %20 = load i32, ptr %9, align 4
  %21 = sext i32 %20 to i64
  %22 = getelementptr inbounds [15 x i64], ptr %12, i64 0, i64 %21
  store i64 %19, ptr %22, align 8
  br label %23

23:                                               ; preds = %17
  %24 = load i32, ptr %9, align 4
  %25 = add nsw i32 %24, 1
  store i32 %25, ptr %9, align 4
  br label %13, !llvm.loop !14

26:                                               ; preds = %13
  %27 = load ptr, ptr %5, align 8
  %28 = load ptr, ptr %6, align 8
  %29 = getelementptr inbounds [15 x i64], ptr %12, i64 0, i64 0
  %30 = load i32, ptr %7, align 4
  %31 = call i32 @If_CutSopBalancePinDelaysInt(ptr noundef %27, ptr noundef %28, ptr noundef %29, i32 noundef %30, ptr noundef %11)
  store i32 %31, ptr %10, align 4
  %32 = load i64, ptr %11, align 8
  %33 = load i32, ptr %7, align 4
  %34 = load ptr, ptr %8, align 8
  call void @If_CutPinDelayTranslate(i64 noundef %32, i32 noundef %33, ptr noundef %34)
  %35 = load i32, ptr %10, align 4
  ret i32 %35
}

; Function Attrs: nounwind uwtable
define internal i32 @If_CutLeaveNum(ptr noundef %0) #0 {
  %2 = alloca ptr, align 8
  store ptr %0, ptr %2, align 8
  %3 = load ptr, ptr %2, align 8
  %4 = getelementptr inbounds %struct.If_Cut_t_, ptr %3, i32 0, i32 7
  %5 = load i64, ptr %4, align 4
  %6 = lshr i64 %5, 24
  %7 = and i64 %6, 255
  %8 = trunc i64 %7 to i32
  ret i32 %8
}

; Function Attrs: nounwind uwtable
define internal i32 @Vec_IntSize(ptr noundef %0) #0 {
  %2 = alloca ptr, align 8
  store ptr %0, ptr %2, align 8
  %3 = load ptr, ptr %2, align 8
  %4 = getelementptr inbounds %struct.Vec_Int_t_, ptr %3, i32 0, i32 1
  %5 = load i32, ptr %4, align 4
  ret i32 %5
}

; Function Attrs: nounwind uwtable
define internal ptr @Vec_WecEntry(ptr noundef %0, i32 noundef %1) #0 {
  %3 = alloca ptr, align 8
  %4 = alloca i32, align 4
  store ptr %0, ptr %3, align 8
  store i32 %1, ptr %4, align 4
  %5 = load ptr, ptr %3, align 8
  %6 = getelementptr inbounds %struct.Vec_Wec_t_, ptr %5, i32 0, i32 2
  %7 = load ptr, ptr %6, align 8
  %8 = load i32, ptr %4, align 4
  %9 = sext i32 %8 to i64
  %10 = getelementptr inbounds %struct.Vec_Int_t_, ptr %7, i64 %9
  ret ptr %10
}

; Function Attrs: nounwind uwtable
define internal i32 @Abc_Lit2Var(i32 noundef %0) #0 {
  %2 = alloca i32, align 4
  store i32 %0, ptr %2, align 4
  %3 = load i32, ptr %2, align 4
  %4 = ashr i32 %3, 1
  ret i32 %4
}

; Function Attrs: nounwind uwtable
define internal i32 @If_CutTruthLit(ptr noundef %0) #0 {
  %2 = alloca ptr, align 8
  store ptr %0, ptr %2, align 8
  %3 = load ptr, ptr %2, align 8
  %4 = getelementptr inbounds %struct.If_Cut_t_, ptr %3, i32 0, i32 4
  %5 = load i32, ptr %4, align 4
  ret i32 %5
}

; Function Attrs: nounwind uwtable
define internal ptr @If_ObjCutBest(ptr noundef %0) #0 {
  %2 = alloca ptr, align 8
  store ptr %0, ptr %2, align 8
  %3 = load ptr, ptr %2, align 8
  %4 = getelementptr inbounds %struct.If_Obj_t_, ptr %3, i32 0, i32 14
  ret ptr %4
}

; Function Attrs: nounwind uwtable
define internal ptr @If_CutLeaf(ptr noundef %0, ptr noundef %1, i32 noundef %2) #0 {
  %4 = alloca ptr, align 8
  %5 = alloca ptr, align 8
  %6 = alloca i32, align 4
  store ptr %0, ptr %4, align 8
  store ptr %1, ptr %5, align 8
  store i32 %2, ptr %6, align 4
  %7 = load ptr, ptr %4, align 8
  %8 = load ptr, ptr %5, align 8
  %9 = getelementptr inbounds %struct.If_Cut_t_, ptr %8, i32 0, i32 8
  %10 = load i32, ptr %6, align 4
  %11 = sext i32 %10 to i64
  %12 = getelementptr inbounds [0 x i32], ptr %9, i64 0, i64 %11
  %13 = load i32, ptr %12, align 4
  %14 = call ptr @If_ManObj(ptr noundef %7, i32 noundef %13)
  ret ptr %14
}

; Function Attrs: nounwind uwtable
define i32 @If_CutSopBalancePinDelays(ptr noundef %0, ptr noundef %1, ptr noundef %2) #0 {
  %4 = alloca i32, align 4
  %5 = alloca ptr, align 8
  %6 = alloca ptr, align 8
  %7 = alloca ptr, align 8
  %8 = alloca ptr, align 8
  %9 = alloca i32, align 4
  %10 = alloca [15 x i32], align 16
  store ptr %0, ptr %5, align 8
  store ptr %1, ptr %6, align 8
  store ptr %2, ptr %7, align 8
  %11 = load ptr, ptr %6, align 8
  %12 = getelementptr inbounds %struct.If_Cut_t_, ptr %11, i32 0, i32 7
  %13 = load i64, ptr %12, align 4
  %14 = lshr i64 %13, 24
  %15 = and i64 %14, 255
  %16 = trunc i64 %15 to i32
  %17 = icmp eq i32 %16, 0
  br i1 %17, label %18, label %19

18:                                               ; preds = %3
  store i32 0, ptr %4, align 4
  br label %85

19:                                               ; preds = %3
  %20 = load ptr, ptr %6, align 8
  %21 = getelementptr inbounds %struct.If_Cut_t_, ptr %20, i32 0, i32 7
  %22 = load i64, ptr %21, align 4
  %23 = lshr i64 %22, 24
  %24 = and i64 %23, 255
  %25 = trunc i64 %24 to i32
  %26 = icmp eq i32 %25, 1
  br i1 %26, label %27, label %37

27:                                               ; preds = %19
  %28 = load ptr, ptr %7, align 8
  %29 = getelementptr inbounds i8, ptr %28, i64 0
  store i8 0, ptr %29, align 1
  %30 = load ptr, ptr %5, align 8
  %31 = load ptr, ptr %6, align 8
  %32 = call ptr @If_CutLeaf(ptr noundef %30, ptr noundef %31, i32 noundef 0)
  %33 = call ptr @If_ObjCutBest(ptr noundef %32)
  %34 = getelementptr inbounds %struct.If_Cut_t_, ptr %33, i32 0, i32 3
  %35 = load float, ptr %34, align 4
  %36 = fptosi float %35 to i32
  store i32 %36, ptr %4, align 4
  br label %85

37:                                               ; preds = %19
  %38 = load ptr, ptr %5, align 8
  %39 = getelementptr inbounds %struct.If_Man_t_, ptr %38, i32 0, i32 58
  %40 = load ptr, ptr %6, align 8
  %41 = getelementptr inbounds %struct.If_Cut_t_, ptr %40, i32 0, i32 7
  %42 = load i64, ptr %41, align 4
  %43 = lshr i64 %42, 24
  %44 = and i64 %43, 255
  %45 = trunc i64 %44 to i32
  %46 = zext i32 %45 to i64
  %47 = getelementptr inbounds [16 x ptr], ptr %39, i64 0, i64 %46
  %48 = load ptr, ptr %47, align 8
  %49 = load ptr, ptr %6, align 8
  %50 = call i32 @If_CutTruthLit(ptr noundef %49)
  %51 = call i32 @Abc_Lit2Var(i32 noundef %50)
  %52 = call ptr @Vec_WecEntry(ptr noundef %48, i32 noundef %51)
  store ptr %52, ptr %8, align 8
  %53 = load ptr, ptr %8, align 8
  %54 = call i32 @Vec_IntSize(ptr noundef %53)
  %55 = icmp eq i32 %54, 0
  br i1 %55, label %56, label %57

56:                                               ; preds = %37
  store i32 -1, ptr %4, align 4
  br label %85

57:                                               ; preds = %37
  store i32 0, ptr %9, align 4
  br label %58

58:                                               ; preds = %75, %57
  %59 = load i32, ptr %9, align 4
  %60 = load ptr, ptr %6, align 8
  %61 = call i32 @If_CutLeaveNum(ptr noundef %60)
  %62 = icmp slt i32 %59, %61
  br i1 %62, label %63, label %78

63:                                               ; preds = %58
  %64 = load ptr, ptr %5, align 8
  %65 = load ptr, ptr %6, align 8
  %66 = load i32, ptr %9, align 4
  %67 = call ptr @If_CutLeaf(ptr noundef %64, ptr noundef %65, i32 noundef %66)
  %68 = call ptr @If_ObjCutBest(ptr noundef %67)
  %69 = getelementptr inbounds %struct.If_Cut_t_, ptr %68, i32 0, i32 3
  %70 = load float, ptr %69, align 4
  %71 = fptosi float %70 to i32
  %72 = load i32, ptr %9, align 4
  %73 = sext i32 %72 to i64
  %74 = getelementptr inbounds [15 x i32], ptr %10, i64 0, i64 %73
  store i32 %71, ptr %74, align 4
  br label %75

75:                                               ; preds = %63
  %76 = load i32, ptr %9, align 4
  %77 = add nsw i32 %76, 1
  store i32 %77, ptr %9, align 4
  br label %58, !llvm.loop !16

78:                                               ; preds = %58
  %79 = load ptr, ptr %8, align 8
  %80 = getelementptr inbounds [15 x i32], ptr %10, i64 0, i64 0
  %81 = load ptr, ptr %6, align 8
  %82 = call i32 @If_CutLeaveNum(ptr noundef %81)
  %83 = load ptr, ptr %7, align 8
  %84 = call i32 @If_CutSopBalancePinDelaysIntInt(ptr noundef %79, ptr noundef %80, i32 noundef %82, ptr noundef %83)
  store i32 %84, ptr %4, align 4
  br label %85

85:                                               ; preds = %78, %56, %27, %18
  %86 = load i32, ptr %4, align 4
  ret i32 %86
}