; Function Attrs: nofree norecurse nosync nounwind memory(readwrite, inaccessiblemem: none) uwtable
define i32 @If_CutSopBalancePinDelays(ptr noundef readonly captures(none) %0, ptr noundef readonly captures(none) %1, ptr noundef writeonly captures(none) %2) local_unnamed_addr #1 {
  %4 = alloca i64, align 8
  %5 = alloca [15 x i64], align 16
  %6 = alloca [15 x i32], align 16
  %7 = getelementptr inbounds nuw i8, ptr %1, i64 28
  %8 = load i64, ptr %7, align 4
  %9 = trunc i64 %8 to i32
  %10 = lshr i32 %9, 24
  %11 = icmp ult i32 %9, 16777216
  br i1 %11, label %63, label %12

12:                                               ; preds = %3
  %13 = icmp eq i32 %10, 1
  br i1 %13, label %14, label %25

14:                                               ; preds = %12
  store i8 0, ptr %2, align 1
  %15 = getelementptr i8, ptr %0, i64 40
  %.val21 = load ptr, ptr %15, align 8
  %16 = getelementptr i8, ptr %.val21, i64 8
  %.val21.val = load ptr, ptr %16, align 8
  %17 = getelementptr inbounds nuw i8, ptr %1, i64 36
  %18 = load i32, ptr %17, align 4
  %19 = sext i32 %18 to i64
  %20 = getelementptr inbounds ptr, ptr %.val21.val, i64 %19
  %21 = load ptr, ptr %20, align 8
  %22 = getelementptr inbounds nuw i8, ptr %21, i64 92
  %23 = load float, ptr %22, align 4
  %24 = fptosi float %23 to i32
  br label %63

25:                                               ; preds = %12
  %26 = getelementptr inbounds nuw i8, ptr %0, i64 1192
  %27 = zext nneg i32 %10 to i64
  %28 = getelementptr inbounds nuw [16 x ptr], ptr %26, i64 0, i64 %27
  %29 = load ptr, ptr %28, align 8
  %30 = getelementptr i8, ptr %1, i64 16
  %.val22 = load i32, ptr %30, align 4
  %31 = ashr i32 %.val22, 1
  %32 = getelementptr i8, ptr %29, i64 8
  %.val23 = load ptr, ptr %32, align 8
  %33 = sext i32 %31 to i64
  %34 = getelementptr inbounds %struct.Vec_Int_t_, ptr %.val23, i64 %33
  %35 = getelementptr i8, ptr %34, i64 4
  %.val24 = load i32, ptr %35, align 4
  %36 = icmp eq i32 %.val24, 0
  br i1 %36, label %63, label %.lr.ph

.lr.ph:                                           ; preds = %25
  %37 = getelementptr i8, ptr %0, i64 40
  %.val = load ptr, ptr %37, align 8
  %38 = getelementptr i8, ptr %.val, i64 8
  %.val.val = load ptr, ptr %38, align 8
  %39 = getelementptr inbounds nuw i8, ptr %1, i64 36
  %umax = tail call i32 @llvm.umax.i32(i32 %10, i32 1)
  %wide.trip.count = zext nneg i32 %umax to i64
  br label %40

40:                                               ; preds = %.lr.ph, %40
  %indvars.iv = phi i64 [ 0, %.lr.ph ], [ %indvars.iv.next, %40 ]
  %41 = getelementptr inbounds nuw [0 x i32], ptr %39, i64 0, i64 %indvars.iv
  %42 = load i32, ptr %41, align 4
  %43 = sext i32 %42 to i64
  %44 = getelementptr inbounds ptr, ptr %.val.val, i64 %43
  %45 = load ptr, ptr %44, align 8
  %46 = getelementptr inbounds nuw i8, ptr %45, i64 92
  %47 = load float, ptr %46, align 4
  %48 = fptosi float %47 to i32
  %49 = getelementptr inbounds nuw [15 x i32], ptr %6, i64 0, i64 %indvars.iv
  store i32 %48, ptr %49, align 4
  %indvars.iv.next = add nuw nsw i64 %indvars.iv, 1
  %exitcond.not = icmp eq i64 %indvars.iv.next, %wide.trip.count
  br i1 %exitcond.not, label %._crit_edge, label %40, !llvm.loop !17

._crit_edge:                                      ; preds = %40
  call void @llvm.lifetime.start.p0(i64 8, ptr nonnull %4)
  call void @llvm.lifetime.start.p0(i64 120, ptr nonnull %5)
  br label %.lr.ph.i

.lr.ph.i:                                         ; preds = %._crit_edge, %.lr.ph.i
  %indvars.iv.i = phi i64 [ %indvars.iv.next.i, %.lr.ph.i ], [ 0, %._crit_edge ]
  %50 = shl i64 %indvars.iv.i, 2
  %51 = and i64 %50, 4294967292
  %52 = shl nuw i64 1, %51
  %53 = getelementptr inbounds nuw [15 x i64], ptr %5, i64 0, i64 %indvars.iv.i
  store i64 %52, ptr %53, align 8
  %indvars.iv.next.i = add nuw nsw i64 %indvars.iv.i, 1
  %exitcond.not.i = icmp eq i64 %indvars.iv.next.i, %27
  br i1 %exitcond.not.i, label %._crit_edge.i, label %.lr.ph.i, !llvm.loop !15

._crit_edge.i:                                    ; preds = %.lr.ph.i
  %54 = call i32 @If_CutSopBalancePinDelaysInt(ptr noundef readonly %34, ptr noundef nonnull readonly %6, ptr noundef nonnull %5, i32 noundef %10, ptr noundef nonnull %4)
  %55 = load i64, ptr %4, align 8
  br label %.lr.ph.i.i

.lr.ph.i.i:                                       ; preds = %.lr.ph.i.i, %._crit_edge.i
  %indvars.iv.i.i = phi i64 [ 0, %._crit_edge.i ], [ %indvars.iv.next.i.i, %.lr.ph.i.i ]
  %56 = shl i64 %indvars.iv.i.i, 2
  %57 = and i64 %56, 4294967292
  %58 = lshr i64 %55, %57
  %59 = trunc i64 %58 to i8
  %60 = and i8 %59, 15
  %61 = add nsw i8 %60, -1
  %62 = getelementptr inbounds nuw i8, ptr %2, i64 %indvars.iv.i.i
  store i8 %61, ptr %62, align 1
  %indvars.iv.next.i.i = add nuw nsw i64 %indvars.iv.i.i, 1
  %exitcond.not.i.i = icmp eq i64 %indvars.iv.next.i.i, %27
  br i1 %exitcond.not.i.i, label %If_CutSopBalancePinDelaysIntInt.exit, label %.lr.ph.i.i, !llvm.loop !16

If_CutSopBalancePinDelaysIntInt.exit:             ; preds = %.lr.ph.i.i
  call void @llvm.lifetime.end.p0(i64 8, ptr nonnull %4)
  call void @llvm.lifetime.end.p0(i64 120, ptr nonnull %5)
  br label %63

63:                                               ; preds = %25, %3, %If_CutSopBalancePinDelaysIntInt.exit, %14
  %.019 = phi i32 [ %24, %14 ], [ %54, %If_CutSopBalancePinDelaysIntInt.exit ], [ 0, %3 ], [ -1, %25 ]
  ret i32 %.019
}